target datalayout = "e-m:e-p270:32:32-p271:32:32-p272:64:64-i64:64-i128:128-f80:128-n8:16:32:64-S128"
target triple = "x86_64-pc-linux-gnu"

%struct.WaveFile = type { %struct.WaveChunk, %struct.WaveFormat, %struct.WaveFact, i64, ptr, i32, i32, i32 }
%struct.WaveChunk = type { i32, i32, i64, ptr, i64 }
%struct.WaveFormat = type { i16, i16, i16, i32, i32, i16, i16, i16, i16, i32, i32, [16 x i8] }
%struct.WaveFact = type { i32, i32 }

@.str.51 = private unnamed_addr constant [32 x i8] c"%u-bit PCM format not supported\00", align 1
@.str.52 = private unnamed_addr constant [48 x i8] c"%u-bit IEEE floating-point format not supported\00", align 1
@.str.53 = private unnamed_addr constant [28 x i8] c"Unsupported block alignment\00", align 1
@.str.54 = private unnamed_addr constant [34 x i8] c"Truncated data chunk in WAVE file\00", align 1
@.str.55 = private unnamed_addr constant [62 x i8] c"Invalid number of sample frames in WAVE fact chunk (too many)\00", align 1

; Function Attrs: nounwind uwtable
define internal i64 @WaveAdjustToFactValue(ptr noundef %0, i64 noundef %1) #0 {
  %3 = alloca i64, align 8
  %4 = alloca ptr, align 8
  %5 = alloca i64, align 8
  store ptr %0, ptr %4, align 8
  store i64 %1, ptr %5, align 8
  %6 = load ptr, ptr %4, align 8
  %7 = getelementptr inbounds nuw %struct.WaveFile, ptr %6, i32 0, i32 2
  %8 = getelementptr inbounds nuw %struct.WaveFact, ptr %7, i32 0, i32 0
  %9 = load i32, ptr %8, align 8
  %10 = icmp eq i32 %9, 2
  br i1 %10, label %11, label %42

11:                                               ; preds = %2
  %12 = load ptr, ptr %4, align 8
  %13 = getelementptr inbounds nuw %struct.WaveFile, ptr %12, i32 0, i32 7
  %14 = load i32, ptr %13, align 8
  %15 = icmp eq i32 %14, 2
  br i1 %15, label %16, label %26

16:                                               ; preds = %11
  %17 = load i64, ptr %5, align 8
  %18 = load ptr, ptr %4, align 8
  %19 = getelementptr inbounds nuw %struct.WaveFile, ptr %18, i32 0, i32 2
  %20 = getelementptr inbounds nuw %struct.WaveFact, ptr %19, i32 0, i32 1
  %21 = load i32, ptr %20, align 4
  %22 = zext i32 %21 to i64
  %23 = icmp slt i64 %17, %22
  br i1 %23, label %24, label %26

24:                                               ; preds = %16
  %25 = call zeroext i1 (ptr, ...) @SDL_SetError_REAL(ptr noundef @.str.55)
  store i64 -1, ptr %3, align 8
  br label %44

26:                                               ; preds = %16, %11
  %27 = load i64, ptr %5, align 8
  %28 = load ptr, ptr %4, align 8
  %29 = getelementptr inbounds nuw %struct.WaveFile, ptr %28, i32 0, i32 2
  %30 = getelementptr inbounds nuw %struct.WaveFact, ptr %29, i32 0, i32 1
  %31 = load i32, ptr %30, align 4
  %32 = zext i32 %31 to i64
  %33 = icmp sgt i64 %27, %32
  br i1 %33, label %34, label %40

34:                                               ; preds = %26
  %35 = load ptr, ptr %4, align 8
  %36 = getelementptr inbounds nuw %struct.WaveFile, ptr %35, i32 0, i32 2
  %37 = getelementptr inbounds nuw %struct.WaveFact, ptr %36, i32 0, i32 1
  %38 = load i32, ptr %37, align 4
  %39 = zext i32 %38 to i64
  store i64 %39, ptr %3, align 8
  br label %44

40:                                               ; preds = %26
  br label %41

41:                                               ; preds = %40
  br label %42

42:                                               ; preds = %41, %2
  %43 = load i64, ptr %5, align 8
  store i64 %43, ptr %3, align 8
  br label %44

44:                                               ; preds = %42, %34, %24
  %45 = load i64, ptr %3, align 8
  ret i64 %45
}

; Function Attrs: nounwind uwtable
define internal zeroext i1 @PCM_Init(ptr noundef %0, i64 noundef %1) #0 {
  %3 = alloca i1, align 1
  %4 = alloca ptr, align 8
  %5 = alloca i64, align 8
  %6 = alloca ptr, align 8
  %7 = alloca i32, align 4
  store ptr %0, ptr %4, align 8
  store i64 %1, ptr %5, align 8
  call void @llvm.lifetime.start.p0(i64 8, ptr %6) #7
  %8 = load ptr, ptr %4, align 8
  %9 = getelementptr inbounds nuw %struct.WaveFile, ptr %8, i32 0, i32 1
  store ptr %9, ptr %6, align 8
  %10 = load ptr, ptr %6, align 8
  %11 = getelementptr inbounds nuw %struct.WaveFormat, ptr %10, i32 0, i32 1
  %12 = load i16, ptr %11, align 2
  %13 = zext i16 %12 to i32
  %14 = icmp eq i32 %13, 1
  br i1 %14, label %15, label %28

15:                                               ; preds = %2
  %16 = load ptr, ptr %6, align 8
  %17 = getelementptr inbounds nuw %struct.WaveFormat, ptr %16, i32 0, i32 6
  %18 = load i16, ptr %17, align 2
  %19 = zext i16 %18 to i32
  switch i32 %19, label %21 [
    i32 8, label %20
    i32 16, label %20
    i32 24, label %20
    i32 32, label %20
  ]

20:                                               ; preds = %15, %15, %15, %15
  br label %27

21:                                               ; preds = %15
  %22 = load ptr, ptr %6, align 8
  %23 = getelementptr inbounds nuw %struct.WaveFormat, ptr %22, i32 0, i32 6
  %24 = load i16, ptr %23, align 2
  %25 = zext i16 %24 to i32
  %26 = call zeroext i1 (ptr, ...) @SDL_SetError_REAL(ptr noundef @.str.51, i32 noundef %25)
  store i1 %26, ptr %3, align 1
  store i32 1, ptr %7, align 4
  br label %111

27:                                               ; preds = %20
  br label %48

28:                                               ; preds = %2
  %29 = load ptr, ptr %6, align 8
  %30 = getelementptr inbounds nuw %struct.WaveFormat, ptr %29, i32 0, i32 1
  %31 = load i16, ptr %30, align 2
  %32 = zext i16 %31 to i32
  %33 = icmp eq i32 %32, 3
  br i1 %33, label %34, label %47

34:                                               ; preds = %28
  %35 = load ptr, ptr %6, align 8
  %36 = getelementptr inbounds nuw %struct.WaveFormat, ptr %35, i32 0, i32 6
  %37 = load i16, ptr %36, align 2
  %38 = zext i16 %37 to i32
  %39 = icmp ne i32 %38, 32
  br i1 %39, label %40, label %46

40:                                               ; preds = %34
  %41 = load ptr, ptr %6, align 8
  %42 = getelementptr inbounds nuw %struct.WaveFormat, ptr %41, i32 0, i32 6
  %43 = load i16, ptr %42, align 2
  %44 = zext i16 %43 to i32
  %45 = call zeroext i1 (ptr, ...) @SDL_SetError_REAL(ptr noundef @.str.52, i32 noundef %44)
  store i1 %45, ptr %3, align 1
  store i32 1, ptr %7, align 4
  br label %111

46:                                               ; preds = %34
  br label %47

47:                                               ; preds = %46, %28
  br label %48

48:                                               ; preds = %47, %27
  %49 = load ptr, ptr %6, align 8
  %50 = getelementptr inbounds nuw %struct.WaveFormat, ptr %49, i32 0, i32 2
  %51 = load i16, ptr %50, align 4
  %52 = zext i16 %51 to i32
  %53 = load ptr, ptr %6, align 8
  %54 = getelementptr inbounds nuw %struct.WaveFormat, ptr %53, i32 0, i32 6
  %55 = load i16, ptr %54, align 2
  %56 = zext i16 %55 to i32
  %57 = mul nsw i32 %52, %56
  %58 = load ptr, ptr %6, align 8
  %59 = getelementptr inbounds nuw %struct.WaveFormat, ptr %58, i32 0, i32 5
  %60 = load i16, ptr %59, align 4
  %61 = zext i16 %60 to i32
  %62 = mul nsw i32 %61, 8
  %63 = srem i32 %57, %62
  %64 = icmp ne i32 %63, 0
  br i1 %64, label %65, label %67

65:                                               ; preds = %48
  %66 = call zeroext i1 (ptr, ...) @SDL_SetError_REAL(ptr noundef @.str.53)
  store i1 %66, ptr %3, align 1
  store i32 1, ptr %7, align 4
  br label %111

67:                                               ; preds = %48
  %68 = load ptr, ptr %4, align 8
  %69 = getelementptr inbounds nuw %struct.WaveFile, ptr %68, i32 0, i32 6
  %70 = load i32, ptr %69, align 4
  %71 = icmp eq i32 %70, 1
  br i1 %71, label %77, label %72

72:                                               ; preds = %67
  %73 = load ptr, ptr %4, align 8
  %74 = getelementptr inbounds nuw %struct.WaveFile, ptr %73, i32 0, i32 6
  %75 = load i32, ptr %74, align 4
  %76 = icmp eq i32 %75, 2
  br i1 %76, label %77, label %94

77:                                               ; preds = %72, %67
  %78 = load ptr, ptr %6, align 8
  %79 = getelementptr inbounds nuw %struct.WaveFormat, ptr %78, i32 0, i32 5
  %80 = load i16, ptr %79, align 4
  %81 = zext i16 %80 to i32
  %82 = icmp sgt i32 %81, 1
  br i1 %82, label %83, label %93

83:                                               ; preds = %77
  %84 = load i64, ptr %5, align 8
  %85 = load ptr, ptr %6, align 8
  %86 = getelementptr inbounds nuw %struct.WaveFormat, ptr %85, i32 0, i32 5
  %87 = load i16, ptr %86, align 4
  %88 = zext i16 %87 to i64
  %89 = urem i64 %84, %88
  %90 = icmp ne i64 %89, 0
  br i1 %90, label %91, label %93

91:                                               ; preds = %83
  %92 = call zeroext i1 (ptr, ...) @SDL_SetError_REAL(ptr noundef @.str.54)
  store i1 %92, ptr %3, align 1
  store i32 1, ptr %7, align 4
  br label %111

93:                                               ; preds = %83, %77
  br label %94

94:                                               ; preds = %93, %72
  %95 = load ptr, ptr %4, align 8
  %96 = load i64, ptr %5, align 8
  %97 = load ptr, ptr %6, align 8
  %98 = getelementptr inbounds nuw %struct.WaveFormat, ptr %97, i32 0, i32 5
  %99 = load i16, ptr %98, align 4
  %100 = zext i16 %99 to i64
  %101 = udiv i64 %96, %100
  %102 = call i64 @WaveAdjustToFactValue(ptr noundef %95, i64 noundef %101)
  %103 = load ptr, ptr %4, align 8
  %104 = getelementptr inbounds nuw %struct.WaveFile, ptr %103, i32 0, i32 3
  store i64 %102, ptr %104, align 8
  %105 = load ptr, ptr %4, align 8
  %106 = getelementptr inbounds nuw %struct.WaveFile, ptr %105, i32 0, i32 3
  %107 = load i64, ptr %106, align 8
  %108 = icmp slt i64 %107, 0
  br i1 %108, label %109, label %110

109:                                              ; preds = %94
  store i1 false, ptr %3, align 1
  store i32 1, ptr %7, align 4
  br label %111

110:                                              ; preds = %94
  store i1 true, ptr %3, align 1
  store i32 1, ptr %7, align 4
  br label %111

111:                                              ; preds = %110, %109, %91, %65, %40, %21
  call void @llvm.lifetime.end.p0(i64 8, ptr %6) #7
  %112 = load i1, ptr %3, align 1
  ret i1 %112
}