; Function Attrs: nounwind uwtable
define internal fastcc zeroext i1 @PCM_Init(ptr noundef nonnull captures(none) %0, i64 noundef range(i64 0, 4294967296) %1) unnamed_addr #0 {
  %3 = getelementptr inbounds nuw i8, ptr %0, i64 34
  %4 = load i16, ptr %3, align 2
  %.phi.trans.insert = getelementptr inbounds nuw i8, ptr %0, i64 50
  %.pre = load i16, ptr %.phi.trans.insert, align 2
  switch i16 %4, label %._crit_edge [
    i16 1, label %5
    i16 3, label %11
  ]

5:                                                ; preds = %2
  %6 = zext i16 %.pre to i32
  %7 = add nsw i32 %6, -8
  %8 = tail call i32 @llvm.fshl.i32(i32 %7, i32 %7, i32 29)
  %switch = icmp ult i32 %8, 4
  br i1 %switch, label %._crit_edge, label %9

9:                                                ; preds = %5
  %10 = tail call zeroext i1 (ptr, ...) @SDL_SetError_REAL(ptr noundef nonnull @.str.51, i32 noundef %6) #8
  br label %53

11:                                               ; preds = %2
  %.not = icmp eq i16 %.pre, 32
  br i1 %.not, label %._crit_edge, label %12

12:                                               ; preds = %11
  %13 = zext i16 %.pre to i32
  %14 = tail call zeroext i1 (ptr, ...) @SDL_SetError_REAL(ptr noundef nonnull @.str.52, i32 noundef %13) #8
  br label %53

._crit_edge:                                      ; preds = %2, %5, %11
  %15 = phi i16 [ %.pre, %5 ], [ 32, %11 ], [ %.pre, %2 ]
  %16 = getelementptr inbounds nuw i8, ptr %0, i64 36
  %17 = load i16, ptr %16, align 4
  %18 = zext i16 %17 to i32
  %19 = zext i16 %15 to i32
  %20 = mul nuw nsw i32 %19, %18
  %21 = getelementptr inbounds nuw i8, ptr %0, i64 48
  %22 = load i16, ptr %21, align 4
  %23 = zext i16 %22 to i32
  %24 = shl nuw nsw i32 %23, 3
  %25 = urem i32 %20, %24
  %.not23 = icmp eq i32 %25, 0
  br i1 %.not23, label %28, label %26

26:                                               ; preds = %._crit_edge
  %27 = tail call zeroext i1 (ptr, ...) @SDL_SetError_REAL(ptr noundef nonnull @.str.53) #8
  br label %53

28:                                               ; preds = %._crit_edge
  %29 = getelementptr inbounds nuw i8, ptr %0, i64 108
  %30 = load i32, ptr %29, align 4
  %.off = add i32 %30, -1
  %switch25 = icmp ult i32 %.off, 2
  %31 = icmp ugt i16 %22, 1
  %or.cond = and i1 %31, %switch25
  %.lhs.trunc = trunc nuw i64 %1 to i32
  br i1 %or.cond, label %32, label %._crit_edge31

32:                                               ; preds = %28
  %33 = urem i32 %.lhs.trunc, %23
  %.not24 = icmp eq i32 %33, 0
  br i1 %.not24, label %._crit_edge31, label %34

34:                                               ; preds = %32
  %35 = tail call zeroext i1 (ptr, ...) @SDL_SetError_REAL(ptr noundef nonnull @.str.54) #8
  br label %53

._crit_edge31:                                    ; preds = %28, %32
  %36 = udiv i32 %.lhs.trunc, %23
  %37 = getelementptr inbounds nuw i8, ptr %0, i64 80
  %38 = load i32, ptr %37, align 8
  %39 = icmp eq i32 %38, 2
  br i1 %39, label %40, label %48

40:                                               ; preds = %._crit_edge31
  %41 = getelementptr inbounds nuw i8, ptr %0, i64 112
  %42 = load i32, ptr %41, align 8
  %43 = icmp eq i32 %42, 2
  %44 = getelementptr inbounds nuw i8, ptr %0, i64 84
  %45 = load i32, ptr %44, align 4
  %46 = icmp ult i32 %36, %45
  %or.cond.i = select i1 %43, i1 %46, i1 false
  br i1 %or.cond.i, label %50, label %._crit_edge.i

._crit_edge.i:                                    ; preds = %40
  %47 = icmp ugt i32 %36, %45
  br i1 %47, label %WaveAdjustToFactValue.exit.thread, label %48

48:                                               ; preds = %._crit_edge.i, %._crit_edge31
  br label %WaveAdjustToFactValue.exit.thread

WaveAdjustToFactValue.exit.thread:                ; preds = %48, %._crit_edge.i
  %.0.i.ph.in = phi i32 [ %45, %._crit_edge.i ], [ %36, %48 ]
  %.0.i.ph = zext i32 %.0.i.ph.in to i64
  %49 = getelementptr inbounds nuw i8, ptr %0, i64 88
  store i64 %.0.i.ph, ptr %49, align 8
  br label %53

50:                                               ; preds = %40
  %51 = tail call zeroext i1 (ptr, ...) @SDL_SetError_REAL(ptr noundef nonnull @.str.55) #8
  %52 = getelementptr inbounds nuw i8, ptr %0, i64 88
  store i64 -1, ptr %52, align 8
  br label %53

53:                                               ; preds = %50, %WaveAdjustToFactValue.exit.thread, %34, %26, %12, %9
  %.0 = phi i1 [ %10, %9 ], [ %27, %26 ], [ %35, %34 ], [ %14, %12 ], [ false, %50 ], [ true, %WaveAdjustToFactValue.exit.thread ]
  ret i1 %.0
}